GAS LISTING /tmp/ccveg4cG.s 			page 1


   1              		.file	"main.cpp"
   2              		.option pic
   3              		.option norelax
   4              		.text
   5              	.Ltext0:
   6              		.align	2
   7              		.globl	main
   9              	main:
  10              	.LFB0:
  11              		.file 1 "src/main.cpp"
   1:src/main.cpp  **** //
   2:src/main.cpp  **** // Created by os on 5/8/24.
   3:src/main.cpp  **** //
   4:src/main.cpp  **** 
   5:src/main.cpp  **** #include "../h/MemoryAllocator.h"
   6:src/main.cpp  **** 
   7:src/main.cpp  **** int main() {
  12              		.loc 1 7 12
  13              		.cfi_startproc
  14 0000 130101FF 		addi	sp,sp,-16
  15              		.cfi_def_cfa_offset 16
  16 0004 23341100 		sd	ra,8(sp)
  17 0008 23308100 		sd	s0,0(sp)
  18              		.cfi_offset 1, -8
  19              		.cfi_offset 8, -16
  20 000c 13040101 		addi	s0,sp,16
  21              		.cfi_def_cfa 8, 0
   8:src/main.cpp  ****     MemoryAllocator& allocator = MemoryAllocator::getInstance();
  22              		.loc 1 8 5
  23              		.loc 1 8 63 is_stmt 0
  24 0010 97000000 		call	_ZN15MemoryAllocator11getInstanceEv@plt
  24      E7800000 
  25              	.LVL0:
   9:src/main.cpp  ****     allocator.mem_alloc(100);
  26              		.loc 1 9 5 is_stmt 1
  27              		.loc 1 9 24 is_stmt 0
  28 0018 93054006 		li	a1,100
  29 001c 97000000 		call	_ZN15MemoryAllocator9mem_allocEm@plt
  29      E7800000 
  30              	.LVL1:
  10:src/main.cpp  **** 
  11:src/main.cpp  ****     return 0;
  31              		.loc 1 11 5 is_stmt 1
  12:src/main.cpp  **** }...
  32              		.loc 1 12 1 is_stmt 0
  33 0024 13050000 		li	a0,0
  34 0028 83308100 		ld	ra,8(sp)
  35              		.cfi_restore 1
  36 002c 03340100 		ld	s0,0(sp)
  37              		.cfi_restore 8
  38              		.cfi_def_cfa 2, 16
  39 0030 13010101 		addi	sp,sp,16
  40              		.cfi_def_cfa_offset 0
  41 0034 67800000 		jr	ra
  42              		.cfi_endproc
  43              	.LFE0:
  45              	.Letext0:
GAS LISTING /tmp/ccveg4cG.s 			page 2


  46              		.file 2 "src/../h/../h/../lib/hw.h"
  47              		.file 3 "src/../h/../h/MemBlock.h"
  48              		.file 4 "src/../h/MemoryAllocator.h"
GAS LISTING /tmp/ccveg4cG.s 			page 3

